; Function Attrs: nofree nosync nounwind memory(readwrite, inaccessiblemem: none) uwtable
define i32 @Proof_MarkUsed_rec(ptr noundef readonly captures(none) %0, i32 noundef %1) local_unnamed_addr #5 {
  %3 = getelementptr inbounds nuw i8, ptr %0, i64 24
  %4 = load ptr, ptr %3, align 8, !tbaa !3
  %.val.i.i = load i32, ptr %0, align 8, !tbaa !10
  %5 = ashr i32 %1, %.val.i.i
  %6 = sext i32 %5 to i64
  %7 = getelementptr inbounds ptr, ptr %4, i64 %6
  %8 = load ptr, ptr %7, align 8, !tbaa !11
  %9 = getelementptr i8, ptr %0, i64 4
  %.val4.i.i = load i32, ptr %9, align 4, !tbaa !13
  %10 = and i32 %.val4.i.i, %1
  %11 = sext i32 %10 to i64
  %12 = getelementptr inbounds i64, ptr %8, i64 %11
  %13 = getelementptr inbounds nuw i8, ptr %12, i64 4
  %14 = load i32, ptr %13, align 4, !tbaa !19
  %.not = icmp eq i32 %14, 0
  br i1 %.not, label %15, label %.critedge

15:                                               ; preds = %2
  store i32 1, ptr %13, align 4, !tbaa !19
  %16 = load i32, ptr %12, align 4
  %.not30 = icmp ult i32 %16, 8
  br i1 %.not30, label %.critedge, label %.lr.ph

.lr.ph:                                           ; preds = %15
  %17 = getelementptr inbounds nuw i8, ptr %12, i64 8
  br label %18

18:                                               ; preds = %.lr.ph, %.thread
  %19 = phi i32 [ %16, %.lr.ph ], [ %39, %.thread ]
  %indvars.iv = phi i64 [ 0, %.lr.ph ], [ %indvars.iv.next, %.thread ]
  %.029 = phi i32 [ 1, %.lr.ph ], [ %.1, %.thread ]
  %20 = getelementptr inbounds nuw [0 x i32], ptr %17, i64 0, i64 %indvars.iv
  %21 = load i32, ptr %20, align 4, !tbaa !18
  %22 = and i32 %21, 1
  %.not22 = icmp eq i32 %22, 0
  br i1 %.not22, label %23, label %.thread

23:                                               ; preds = %18
  %24 = ashr i32 %21, 2
  %25 = load ptr, ptr %3, align 8, !tbaa !3
  %.val.i.i25 = load i32, ptr %0, align 8, !tbaa !10
  %26 = ashr i32 %24, %.val.i.i25
  %27 = sext i32 %26 to i64
  %28 = getelementptr inbounds ptr, ptr %25, i64 %27
  %29 = load ptr, ptr %28, align 8, !tbaa !11
  %.not23 = icmp eq ptr %29, null
  br i1 %.not23, label %.thread, label %30

30:                                               ; preds = %23
  %.val4.i.i26 = load i32, ptr %9, align 4, !tbaa !13
  %31 = and i32 %.val4.i.i26, %24
  %32 = sext i32 %31 to i64
  %33 = getelementptr inbounds i64, ptr %29, i64 %32
  %34 = getelementptr inbounds nuw i8, ptr %33, i64 4
  %35 = load i32, ptr %34, align 4, !tbaa !19
  %.not24 = icmp eq i32 %35, 0
  br i1 %.not24, label %36, label %.thread

36:                                               ; preds = %30
  %37 = tail call i32 @Proof_MarkUsed_rec(ptr noundef nonnull %0, i32 noundef %24)
  %38 = add nsw i32 %37, %.029
  %.pre = load i32, ptr %12, align 4
  br label %.thread

.thread:                                          ; preds = %18, %23, %30, %36
  %39 = phi i32 [ %19, %30 ], [ %.pre, %36 ], [ %19, %23 ], [ %19, %18 ]
  %.1 = phi i32 [ %.029, %30 ], [ %38, %36 ], [ %.029, %23 ], [ %.029, %18 ]
  %indvars.iv.next = add nuw nsw i64 %indvars.iv, 1
  %40 = lshr i32 %39, 3
  %41 = zext nneg i32 %40 to i64
  %42 = icmp samesign ult i64 %indvars.iv.next, %41
  br i1 %42, label %18, label %.critedge, !llvm.loop !29

.critedge:                                        ; preds = %.thread, %15, %2
  %.020 = phi i32 [ 0, %2 ], [ 1, %15 ], [ %.1, %.thread ]
  ret i32 %.020
}